; Function Attrs: nounwind uwtable
define dso_local { i64, ptr } @jq_get_attr(ptr noundef readonly captures(none) %0, i64 %1, ptr %2) local_unnamed_addr #0 {
  %4 = getelementptr inbounds nuw i8, ptr %0, i64 176
  %5 = load i64, ptr %4, align 8
  %6 = getelementptr inbounds nuw i8, ptr %0, i64 184
  %7 = load ptr, ptr %6, align 8
  %8 = tail call { i64, ptr } @jv_copy(i64 %5, ptr %7) #13
  %9 = extractvalue { i64, ptr } %8, 0
  %10 = extractvalue { i64, ptr } %8, 1
  %11 = tail call { i64, ptr } @jv_object_get(i64 %9, ptr %10, i64 %1, ptr %2) #13
  ret { i64, ptr } %11
}